
test2.out:     file format elf32-littleunicore32


Disassembly of section .init:

0200025c <_init>:
 200025c:	24ef4004 	sub	sp, sp, #4	; 0x4
 2000260:	78ef8000 	stw	lr, [sp+]
 2000264:	bd000015 	b.l	20002bc <call_gmon_start>
 2000268:	bd000056 	b.l	20003c4 <frame_dummy>
 200026c:	bd0000cd 	b.l	20005a4 <__do_global_ctors_aux>
 2000270:	79ef0000 	ldw	ip, [sp+]
 2000274:	28ef4004 	add	sp, sp, #4	; 0x4
 2000278:	10ffc13c 	jump	ip

Disassembly of section .text:

0200027c <_start>:
 200027c:	79ff0030 	ldw	ip, [pc+], #48	; 20002b0 <_start+0x34>
 2000280:	3a06c000 	mov	fp, #0	; 0x0
 2000284:	69e84004 	ldw.w	r1, [sp]+, #4
 2000288:	1a00801d 	mov	r2, sp
 200028c:	72e88004 	stw.w	r2, [sp-], #4
 2000290:	72e80004 	stw.w	r0, [sp-], #4
 2000294:	1a000000 	nop			(mov r0,r0)
 2000298:	1a000000 	nop			(mov r0,r0)
 200029c:	79f80014 	ldw	r0, [pc+], #20	; 20002b4 <_start+0x38>
 20002a0:	79f8c014 	ldw	r3, [pc+], #20	; 20002b8 <_start+0x3c>
 20002a4:	72ef0004 	stw.w	ip, [sp-], #4
 20002a8:	bd0000e9 	b.l	2000650 <_fini+0x44>
 20002ac:	bd0000e2 	b.l	2000638 <_fini+0x2c>
 20002b0:	020004e0 	.word	0x020004e0
 20002b4:	02000494 	.word	0x02000494
 20002b8:	020004e4 	.word	0x020004e4

020002bc <call_gmon_start>:
 20002bc:	24ef4004 	sub	sp, sp, #4	; 0x4
 20002c0:	78ee8000 	stw	sl, [sp+]
 20002c4:	79fe802c 	ldw	sl, [pc+], #44	; 20002f4 <call_gmon_start+0x38>
 20002c8:	08fe801a 	add	sl, pc, sl
 20002cc:	79fbc028 	ldw	r15, [pc+], #40	; 20002f8 <call_gmon_start+0x3c>
 20002d0:	59d3c00f 	ldw	r15, [sl+],r15
 20002d4:	35780000 	cmpsub.a	r15, #0	; 0x0
 20002d8:	a0000003 	beq	20002e8 <call_gmon_start+0x2c>
 20002dc:	79ee8000 	ldw	sl, [sp+]
 20002e0:	28ef4004 	add	sp, sp, #4	; 0x4
 20002e4:	bc0000d7 	b	2000644 <_fini+0x38>
 20002e8:	79ee8000 	ldw	sl, [sp+]
 20002ec:	28ef4004 	add	sp, sp, #4	; 0x4
 20002f0:	10ffc13e 	jump	lr
 20002f4:	000084e0 	.word	0x000084e0
 20002f8:	00000018 	.word	0x00000018

020002fc <__do_global_dtors_aux>:
 20002fc:	70ef8004 	stw	lr, [sp-], #4
 2000300:	70ee8008 	stw	sl, [sp-], #8
 2000304:	70ee000c 	stw	r24, [sp-], #12
 2000308:	70edc010 	stw	r23, [sp-], #16
 200030c:	70edc010 	stw	r23, [sp-], #16
 2000310:	70ed8014 	stw	r22, [sp-], #20
 2000314:	70edc010 	stw	r23, [sp-], #16
 2000318:	70ed8014 	stw	r22, [sp-], #20
 200031c:	24ef4014 	sub	sp, sp, #20	; 0x14
 2000320:	1a000000 	nop			(mov r0,r0)
 2000324:	79fd8078 	ldw	r22, [pc+], #120	; 20003a0 <__do_global_dtors_aux+0xa4>
 2000328:	7db3c000 	ldb	r15, [r22+]
 200032c:	35780000 	cmpsub.a	r15, #0	; 0x0
 2000330:	a2000014 	bne	2000384 <__do_global_dtors_aux+0x88>
 2000334:	79fdc06c 	ldw	r23, [pc+], #108	; 20003a4 <__do_global_dtors_aux+0xa8>
 2000338:	79fe006c 	ldw	r24, [pc+], #108	; 20003a8 <__do_global_dtors_aux+0xac>
 200033c:	06be0018 	rsub	r24, r23, r24
 2000340:	79fe8068 	ldw	sl, [pc+], #104	; 20003ac <__do_global_dtors_aux+0xb0>
 2000344:	1a060498 	mov	r24, r24 |> #2
 2000348:	79d3c000 	ldw	r15, [sl+]
 200034c:	24c60001 	sub	r24, r24, #1	; 0x1
 2000350:	15780018 	cmpsub.a	r15, r24
 2000354:	a4000009 	bea	200037c <__do_global_dtors_aux+0x80>
 2000358:	287bc001 	add	r15, r15, #1	; 0x1
 200035c:	78d3c000 	stw	r15, [sl+]
 2000360:	1a000000 	nop			(mov r0,r0)
 2000364:	28ff8008 	add	lr, pc, #8	; 0x8
 2000368:	59bf040f 	ldw	ip, [r23+],r15 << #2
 200036c:	10ffc13c 	jump	ip
 2000370:	79d3c000 	ldw	r15, [sl+]
 2000374:	15780018 	cmpsub.a	r15, r24
 2000378:	a6fffff7 	bub	2000358 <__do_global_dtors_aux+0x5c>
 200037c:	3a03c001 	mov	r15, #1	; 0x1
 2000380:	7cb3c000 	stb	r15, [r22+]
 2000384:	69ed8004 	ldw.w	r22, [sp]+, #4
 2000388:	1a000000 	nop			(mov r0,r0)
 200038c:	69edc004 	ldw.w	r23, [sp]+, #4
 2000390:	69ee0004 	ldw.w	r24, [sp]+, #4
 2000394:	69ee8004 	ldw.w	sl, [sp]+, #4
 2000398:	69ef0004 	ldw.w	ip, [sp]+, #4
 200039c:	10ffc13c 	jump	ip
 20003a0:	020087d8 	.word	0x020087d8
 20003a4:	020086d8 	.word	0x020086d8
 20003a8:	020086dc 	.word	0x020086dc
 20003ac:	020087dc 	.word	0x020087dc

020003b0 <call___do_global_dtors_aux>:
 20003b0:	24ef4004 	sub	sp, sp, #4	; 0x4
 20003b4:	78ef8000 	stw	lr, [sp+]
 20003b8:	79ef0000 	ldw	ip, [sp+]
 20003bc:	28ef4004 	add	sp, sp, #4	; 0x4
 20003c0:	10ffc13c 	jump	ip

020003c4 <frame_dummy>:
 20003c4:	24ef4004 	sub	sp, sp, #4	; 0x4
 20003c8:	78ef8000 	stw	lr, [sp+]
 20003cc:	79f80030 	ldw	r0, [pc+], #48	; 2000400 <frame_dummy+0x3c>
 20003d0:	1a000000 	nop			(mov r0,r0)
 20003d4:	7903c000 	ldw	r15, [r0+]
 20003d8:	35780000 	cmpsub.a	r15, #0	; 0x0
 20003dc:	a0000005 	beq	20003f4 <frame_dummy+0x30>
 20003e0:	79fbc020 	ldw	r15, [pc+], #32	; 2000404 <frame_dummy+0x40>
 20003e4:	35780000 	cmpsub.a	r15, #0	; 0x0
 20003e8:	a0000002 	beq	20003f4 <frame_dummy+0x30>
 20003ec:	28ff8004 	add	lr, pc, #4	; 0x4
 20003f0:	10ffc12f 	jump	r15
 20003f4:	79ef0000 	ldw	ip, [sp+]
 20003f8:	28ef4004 	add	sp, sp, #4	; 0x4
 20003fc:	10ffc13c 	jump	ip
 2000400:	020086e0 	.word	0x020086e0
 2000404:	00000000 	.word	0x00000000

02000408 <call_frame_dummy>:
 2000408:	24ef4004 	sub	sp, sp, #4	; 0x4
 200040c:	78ef8000 	stw	lr, [sp+]
 2000410:	79ef0000 	ldw	ip, [sp+]
 2000414:	28ef4004 	add	sp, sp, #4	; 0x4
 2000418:	10ffc13c 	jump	ip

0200041c <Factorial>:
 200041c:	1a07001d 	mov	ip, sp
 2000420:	70efc004 	stw	pc, [sp-], #4
 2000424:	70ef8008 	stw	lr, [sp-], #8
 2000428:	70ef000c 	stw	ip, [sp-], #12
 200042c:	70ef000c 	stw	ip, [sp-], #12
 2000430:	70eec010 	stw	fp, [sp-], #16
 2000434:	70ef000c 	stw	ip, [sp-], #12
 2000438:	70eec010 	stw	fp, [sp-], #16
 200043c:	24ef4010 	sub	sp, sp, #16	; 0x10
 2000440:	24e6c004 	sub	fp, ip, #4	; 0x4
 2000444:	24ef4004 	sub	sp, sp, #4	; 0x4
 2000448:	70d80010 	stw	r0, [fp-], #16
 200044c:	71dbc010 	ldw	r15, [fp-], #16
 2000450:	35780001 	cmpsub.a	r15, #1	; 0x1
 2000454:	a2000002 	bne	2000460 <Factorial+0x44>
 2000458:	3a03c001 	mov	r15, #1	; 0x1
 200045c:	bc000007 	b	200047c <Factorial+0x60>
 2000460:	71dbc010 	ldw	r15, [fp-], #16
 2000464:	247bc001 	sub	r15, r15, #1	; 0x1
 2000468:	1a00000f 	mov	r0, r15
 200046c:	bdffffeb 	b.l	200041c <Factorial>
 2000470:	1a03c000 	mov	r15, r0
 2000474:	71db8010 	ldw	r14, [fp-], #16
 2000478:	007bc12e 	mul	r15, r14, r15
 200047c:	1a00000f 	mov	r0, r15
 2000480:	1a07001b 	mov	ip, fp
 2000484:	71dec00c 	ldw	fp, [fp-], #12
 2000488:	71e74008 	ldw	sp, [ip-], #8
 200048c:	71e70004 	ldw	ip, [ip-], #4
 2000490:	10ffc13c 	jump	ip

02000494 <main>:
 2000494:	1a07001d 	mov	ip, sp
 2000498:	70efc004 	stw	pc, [sp-], #4
          011 1 0 0 0 0 11101 11111 00000000000100
 200049c:	70ef8008 	stw	lr, [sp-], #8
 20004a0:	70ef000c 	stw	ip, [sp-], #12
 20004a4:	70ef000c 	stw	ip, [sp-], #12
 20004a8:	70eec010 	stw	fp, [sp-], #16
 20004ac:	70ef000c 	stw	ip, [sp-], #12
 20004b0:	70eec010 	stw	fp, [sp-], #16
 20004b4:	24ef4010 	sub	sp, sp, #16	; 0x10
 20004b8:	24e6c004 	sub	fp, ip, #4	; 0x4
 20004bc:	3a000006 	mov	r0, #6	; 0x6
 20004c0:	bdffffd6 	b.l	200041c <Factorial>
 20004c4:	3a03c000 	mov	r15, #0	; 0x0
 20004c8:	1a00000f 	mov	r0, r15
 20004cc:	1a07001b 	mov	ip, fp
 20004d0:	71dec00c 	ldw	fp, [fp-], #12
 20004d4:	71e74008 	ldw	sp, [ip-], #8
 20004d8:	71e70004 	ldw	ip, [ip-], #4
 20004dc:	10ffc13c 	jump	ip

020004e0 <__libc_csu_fini>:
 20004e0:	10ffc13e 	jump	lr

020004e4 <__libc_csu_init>:
 20004e4:	70ef8004 	stw	lr, [sp-], #4
 20004e8:	70ee8008 	stw	sl, [sp-], #8
 20004ec:	70ee000c 	stw	r24, [sp-], #12
 20004f0:	70edc010 	stw	r23, [sp-], #16
 20004f4:	70ed8014 	stw	r22, [sp-], #20
 20004f8:	70ed4018 	stw	r21, [sp-], #24
 20004fc:	70ed001c 	stw	r20, [sp-], #28
 2000500:	70ed001c 	stw	r20, [sp-], #28
 2000504:	70ecc020 	stw	r19, [sp-], #32
 2000508:	70ed001c 	stw	r20, [sp-], #28
 200050c:	70ecc020 	stw	r19, [sp-], #32
 2000510:	24ef4020 	sub	sp, sp, #32	; 0x20
 2000514:	1a000000 	nop			(mov r0,r0)
 2000518:	79fe807c 	ldw	sl, [pc+], #124	; 2000598 <__libc_csu_init+0xb4>
 200051c:	08fe801a 	add	sl, pc, sl
 2000520:	1a058000 	mov	r22, r0
 2000524:	1a054001 	mov	r21, r1
 2000528:	1a050002 	mov	r20, r2
 200052c:	bdffff4b 	b.l	200025c <_init>
 2000530:	79fbc068 	ldw	r15, [pc+], #104	; 200059c <__libc_csu_init+0xb8>
 2000534:	59d4c00f 	ldw	r19, [sl+],r15
 2000538:	79fbc064 	ldw	r15, [pc+], #100	; 20005a0 <__libc_csu_init+0xbc>
 200053c:	59d5c00f 	ldw	r23, [sl+],r15
 2000540:	069dc017 	rsub	r23, r19, r23
 2000544:	1b05c497 	mov.a	r23, r23 |> #2
 2000548:	a000000a 	beq	2000574 <__libc_csu_init+0x90>
 200054c:	3a060000 	mov	r24, #0	; 0x0
 2000550:	1a000016 	mov	r0, r22
 2000554:	1a004015 	mov	r1, r21
 2000558:	1a008014 	mov	r2, r20
 200055c:	28ff8008 	add	lr, pc, #8	; 0x8
 2000560:	599f0418 	ldw	ip, [r19+],r24 << #2
 2000564:	10ffc13c 	jump	ip
 2000568:	28c60001 	add	r24, r24, #1	; 0x1
 200056c:	15c00017 	cmpsub.a	r24, r23
 2000570:	a6fffff7 	bub	2000550 <__libc_csu_init+0x6c>
 2000574:	69ecc004 	ldw.w	r19, [sp]+, #4
 2000578:	69ed0004 	ldw.w	r20, [sp]+, #4
 200057c:	69ed4004 	ldw.w	r21, [sp]+, #4
 2000580:	69ed8004 	ldw.w	r22, [sp]+, #4
 2000584:	69edc004 	ldw.w	r23, [sp]+, #4
 2000588:	69ee0004 	ldw.w	r24, [sp]+, #4
 200058c:	69ee8004 	ldw.w	sl, [sp]+, #4
 2000590:	69ef0004 	ldw.w	ip, [sp]+, #4
 2000594:	10ffc13c 	jump	ip
 2000598:	0000828c 	.word	0x0000828c
 200059c:	00000020 	.word	0x00000020
 20005a0:	0000001c 	.word	0x0000001c

020005a4 <__do_global_ctors_aux>:
 20005a4:	70ef8004 	stw	lr, [sp-], #4
 20005a8:	70ef8004 	stw	lr, [sp-], #4
 20005ac:	70ee8008 	stw	sl, [sp-], #8
 20005b0:	70ef8004 	stw	lr, [sp-], #4
 20005b4:	70ee8008 	stw	sl, [sp-], #8
 20005b8:	24ef4008 	sub	sp, sp, #8	; 0x8
 20005bc:	1a000000 	nop			(mov r0,r0)
 20005c0:	79fe8030 	ldw	sl, [pc+], #48	; 20005f4 <__do_global_ctors_aux+0x50>
 20005c4:	71d3c004 	ldw	r15, [sl-], #4
 20005c8:	37780001 	cmpadd.a	r15, #1	; 0x1
 20005cc:	a0000006 	beq	20005e8 <__do_global_ctors_aux+0x44>
 20005d0:	24d68004 	sub	sl, sl, #4	; 0x4
 20005d4:	28ff8004 	add	lr, pc, #4	; 0x4
 20005d8:	10ffc12f 	jump	r15
 20005dc:	73d3c004 	ldw.w	r15, [sl-], #4
 20005e0:	37780001 	cmpadd.a	r15, #1	; 0x1
 20005e4:	a2fffffb 	bne	20005d4 <__do_global_ctors_aux+0x30>
 20005e8:	69ee8004 	ldw.w	sl, [sp]+, #4
 20005ec:	69ef0004 	ldw.w	ip, [sp]+, #4
 20005f0:	10ffc13c 	jump	ip
 20005f4:	020086d4 	.word	0x020086d4

020005f8 <call___do_global_ctors_aux>:
 20005f8:	24ef4004 	sub	sp, sp, #4	; 0x4
 20005fc:	78ef8000 	stw	lr, [sp+]
 2000600:	79ef0000 	ldw	ip, [sp+]
 2000604:	28ef4004 	add	sp, sp, #4	; 0x4
 2000608:	10ffc13c 	jump	ip

Disassembly of section .fini:

0200060c <_fini>:
 200060c:	24ef4004 	sub	sp, sp, #4	; 0x4
 2000610:	78ef8000 	stw	lr, [sp+]
 2000614:	bdffff39 	b.l	20002fc <__do_global_dtors_aux>
 2000618:	79ef0000 	ldw	ip, [sp+]
 200061c:	28ef4004 	add	sp, sp, #4	; 0x4
 2000620:	10ffc13c 	jump	ip

Disassembly of section .plt:

02000624 <.plt>:
 2000624:	72ef8004 	stw.w	lr, [sp-], #4
 2000628:	79ff8008 	ldw	lr, [pc+], #8	; 2000634 <_fini+0x28>
 200062c:	08ff801e 	add	lr, pc, lr
 2000630:	7bf7c00c 	ldw.w	pc, [lr+], #12
 2000634:	00008178 	.word	0x00008178
 2000638:	28ff1200 	add	ip, pc, #0	; 0x0
 200063c:	28e72402 	add	ip, ip, #32768	; 0x8000
 2000640:	7be7c17c 	ldw.w	pc, [ip+], #380
 2000644:	28ff1200 	add	ip, pc, #0	; 0x0
 2000648:	28e72402 	add	ip, ip, #32768	; 0x8000
 200064c:	7be7c174 	ldw.w	pc, [ip+], #372
 2000650:	28ff1200 	add	ip, pc, #0	; 0x0
 2000654:	28e72402 	add	ip, ip, #32768	; 0x8000
 2000658:	7be7c16c 	ldw.w	pc, [ip+], #364
