
test.out:     file format elf32-littleunicore32


Disassembly of section .init:

0200025c <_init>:
 200025c:	72ef8004 	stw.w	lr, [sp-], #4
 2000260:	bd000013 	b.l	20002b0 <call_gmon_start>
 2000264:	bd000043 	b.l	2000374 <frame_dummy>
 2000268:	bd000090 	b.l	20004ac <__do_global_ctors_aux>
 200026c:	69efc004 	ldw.w	pc, [sp]+, #4

Disassembly of section .text:

02000270 <_start>:
 2000270:	79ff0030 	ldw	ip, [pc+], #48	; 20002a4 <_start+0x34>
 2000274:	3a06c000 	mov	fp, #0	; 0x0
 2000278:	69e84004 	ldw.w	r1, [sp]+, #4
 200027c:	1a00801d 	mov	r2, sp
 2000280:	72e88004 	stw.w	r2, [sp-], #4
 2000284:	72e80004 	stw.w	r0, [sp-], #4
 2000288:	1a000000 	nop			(mov r0,r0)
 200028c:	1a000000 	nop			(mov r0,r0)
 2000290:	79f80014 	ldw	r0, [pc+], #20	; 20002a8 <_start+0x38>
 2000294:	79f8c014 	ldw	r3, [pc+], #20	; 20002ac <_start+0x3c>
 2000298:	72ef0004 	stw.w	ip, [sp-], #4
 200029c:	bd0000a3 	b.l	200052c <_fini+0x38>
 20002a0:	bd00009c 	b.l	2000514 <_fini+0x20>
 20002a4:	02000430 	.word	0x02000430
 20002a8:	0200040c 	.word	0x0200040c
 20002ac:	02000434 	.word	0x02000434

020002b0 <call_gmon_start>:
 20002b0:	72ee8004 	stw.w	sl, [sp-], #4
 20002b4:	79fe8024 	ldw	sl, [pc+], #36	; 20002dc <call_gmon_start+0x2c>
 20002b8:	08fe801a 	add	sl, pc, sl
 20002bc:	79fb8020 	ldw	r14, [pc+], #32	; 20002e0 <call_gmon_start+0x30>
 20002c0:	59d3c00e 	ldw	r15, [sl+],r14
 20002c4:	35780000 	cmpsub.a	r15, #0	; 0x0
 20002c8:	a0000002 	beq	20002d4 <call_gmon_start+0x24>
 20002cc:	8be82040 	ldm.w	(sl), [sp]+
 20002d0:	bc000093 	b	2000520 <_fini+0x2c>
 20002d4:	8be82040 	ldm.w	(sl), [sp]+
 20002d8:	1a07c01e 	mov	pc, lr
 20002dc:	000083d0 	.word	0x000083d0
 20002e0:	00000018 	.word	0x00000018

020002e4 <__do_global_dtors_aux>:
 20002e4:	92ea2e60 	stm.w	(r21, r22, r23, r24, sl, lr), [sp-]
 20002e8:	1a000000 	nop			(mov r0,r0)
 20002ec:	1a000000 	nop			(mov r0,r0)
 20002f0:	79fd4064 	ldw	r21, [pc+], #100	; 2000358 <__do_global_dtors_aux+0x74>
 20002f4:	7dabc000 	ldb	r15, [r21+]
 20002f8:	35780000 	cmpsub.a	r15, #0	; 0x0
 20002fc:	a2000013 	bne	200034c <__do_global_dtors_aux+0x68>
 2000300:	79fd8058 	ldw	r22, [pc+], #88	; 200035c <__do_global_dtors_aux+0x78>
 2000304:	79fb4058 	ldw	r13, [pc+], #88	; 2000360 <__do_global_dtors_aux+0x7c>
 2000308:	79fe0058 	ldw	r24, [pc+], #88	; 2000364 <__do_global_dtors_aux+0x80>
 200030c:	06b3800d 	rsub	r14, r22, r13
 2000310:	1a03c48e 	mov	r15, r14 |> #2
 2000314:	79c68000 	ldw	sl, [r24+]
 2000318:	247dc001 	sub	r23, r15, #1	; 0x1
 200031c:	15d00017 	cmpsub.a	sl, r23
 2000320:	a4000008 	bea	2000344 <__do_global_dtors_aux+0x60>
 2000324:	28d3c001 	add	r15, sl, #1	; 0x1
 2000328:	78c3c000 	stw	r15, [r24+]
 200032c:	1a000000 	nop			(mov r0,r0)
 2000330:	28ff8004 	add	lr, pc, #4	; 0x4
 2000334:	59b7c40f 	ldw	pc, [r22+],r15 << #2
 2000338:	79c68000 	ldw	sl, [r24+]
 200033c:	15d00017 	cmpsub.a	sl, r23
 2000340:	a6fffff8 	bub	2000324 <__do_global_dtors_aux+0x40>
 2000344:	3a03c001 	mov	r15, #1	; 0x1
 2000348:	7cabc000 	stb	r15, [r21+]
 200034c:	1a000000 	nop			(mov r0,r0)
 2000350:	1a000000 	nop			(mov r0,r0)
 2000354:	8bec2e60 	ldm.w	(r21, r22, r23, r24, sl, pc), [sp]+
 2000358:	020086b8 	.word	0x020086b8
 200035c:	020085b8 	.word	0x020085b8
 2000360:	020085bc 	.word	0x020085bc
 2000364:	020086bc 	.word	0x020086bc

02000368 <call___do_global_dtors_aux>:
 2000368:	72ef8004 	stw.w	lr, [sp-], #4
 200036c:	1a000000 	nop			(mov r0,r0)
 2000370:	69efc004 	ldw.w	pc, [sp]+, #4

02000374 <frame_dummy>:
 2000374:	72ef8004 	stw.w	lr, [sp-], #4
 2000378:	79fb802c 	ldw	r14, [pc+], #44	; 20003a8 <frame_dummy+0x34>
 200037c:	1a000000 	nop			(mov r0,r0)
 2000380:	7973c000 	ldw	r15, [r14+]
 2000384:	35780000 	cmpsub.a	r15, #0	; 0x0
 2000388:	a0000006 	beq	20003a4 <frame_dummy+0x30>
 200038c:	79fbc01c 	ldw	r15, [pc+], #28	; 20003ac <frame_dummy+0x38>
 2000390:	35780000 	cmpsub.a	r15, #0	; 0x0
 2000394:	a0000003 	beq	20003a4 <frame_dummy+0x30>
 2000398:	1a00000e 	mov	r0, r14
 200039c:	28ff8004 	add	lr, pc, #4	; 0x4
 20003a0:	1a07c00f 	mov	pc, r15
 20003a4:	69efc004 	ldw.w	pc, [sp]+, #4
 20003a8:	020085c0 	.word	0x020085c0
 20003ac:	00000000 	.word	0x00000000

020003b0 <call_frame_dummy>:
 20003b0:	72ef8004 	stw.w	lr, [sp-], #4
 20003b4:	1a000000 	nop			(mov r0,r0)
 20003b8:	69efc004 	ldw.w	pc, [sp]+, #4

020003bc <Factorial>:
 20003bc:	1a07001d 	mov	ip, sp
 20003c0:	92eeec40 	stm.w	(r23, r24, sl, fp, ip, lr, pc), [sp-]
 20003c4:	24e6c004 	sub	fp, ip, #4	; 0x4
 20003c8:	24ef4004 	sub	sp, sp, #4	; 0x4
 20003cc:	70d8001c 	stw	r0, [fp-], #28
 20003d0:	71dbc01c 	ldw	r15, [fp-], #28
 20003d4:	35780001 	cmpsub.a	r15, #1	; 0x1
 20003d8:	a2000002 	bne	20003e4 <Factorial+0x28>
 20003dc:	3a068001 	mov	sl, #1	; 0x1
 20003e0:	bc000007 	b	2000400 <Factorial+0x44>
 20003e4:	71db801c 	ldw	r14, [fp-], #28
 20003e8:	2473c001 	sub	r15, r14, #1	; 0x1
 20003ec:	1a00000f 	mov	r0, r15
 20003f0:	bdfffff2 	b.l	20003bc <Factorial>
 20003f4:	1a060000 	mov	r24, r0
 20003f8:	71ddc01c 	ldw	r23, [fp-], #28
 20003fc:	00c68137 	mul	sl, r23, r24
 2000400:	1a03c01a 	mov	r15, sl
 2000404:	1a00000f 	mov	r0, r15
 2000408:	91dd6c40 	ldm	(r23, r24, sl, fp, sp, pc), [fp-]

0200040c <main>:
 200040c:	1a07001d 	mov	ip, sp
 2000410:	92eee840 	stm.w	(r24, sl, fp, ip, lr, pc), [sp-]
 2000414:	24e6c004 	sub	fp, ip, #4	; 0x4
 2000418:	3a000006 	mov	r0, #6	; 0x6
 200041c:	bdffffe7 	b.l	20003bc <Factorial>
 2000420:	3a060000 	mov	r24, #0	; 0x0
 2000424:	1a068018 	mov	sl, r24
 2000428:	1a00001a 	mov	r0, sl
 200042c:	91dd6840 	ldm	(r24, sl, fp, sp, pc), [fp-]

02000430 <__libc_csu_fini>:
 2000430:	10ffc13e 	jump	lr

02000434 <__libc_csu_init>:
 2000434:	92ea3e7e 	stm.w	(r17, r18, r19, r20, r21, r22, r23, r24, r25, sl, lr), [sp-]
 2000438:	1a000000 	nop			(mov r0,r0)
 200043c:	1a000000 	nop			(mov r0,r0)
 2000440:	79fe805c 	ldw	sl, [pc+], #92	; 20004a0 <__libc_csu_init+0x6c>
 2000444:	08fe801a 	add	sl, pc, sl
 2000448:	79fe4058 	ldw	r25, [pc+], #88	; 20004a4 <__libc_csu_init+0x70>
 200044c:	1a058000 	mov	r22, r0
 2000450:	79fc4054 	ldw	r17, [pc+], #84	; 20004a8 <__libc_csu_init+0x74>
 2000454:	1a054001 	mov	r21, r1
 2000458:	1a050002 	mov	r20, r2
 200045c:	bdffff7f 	b.l	200025c <_init>
 2000460:	59d48019 	ldw	r18, [sl+],r25
 2000464:	59d4c011 	ldw	r19, [sl+],r17
 2000468:	06960013 	rsub	r24, r18, r19
 200046c:	1b05c498 	mov.a	r23, r24 |> #2
 2000470:	a000000a 	beq	200049c <__libc_csu_init+0x68>
 2000474:	1a04c012 	mov	r19, r18
 2000478:	3a060000 	mov	r24, #0	; 0x0
 200047c:	1a000016 	mov	r0, r22
 2000480:	1a004015 	mov	r1, r21
 2000484:	1a008014 	mov	r2, r20
 2000488:	28ff8004 	add	lr, pc, #4	; 0x4
 200048c:	599fc418 	ldw	pc, [r19+],r24 << #2
 2000490:	28c60001 	add	r24, r24, #1	; 0x1
 2000494:	15c00017 	cmpsub.a	r24, r23
 2000498:	a6fffff8 	bub	200047c <__libc_csu_init+0x48>
 200049c:	8bec3e7e 	ldm.w	(r17, r18, r19, r20, r21, r22, r23, r24, r25, sl, pc), [sp]+
 20004a0:	00008244 	.word	0x00008244
 20004a4:	00000020 	.word	0x00000020
 20004a8:	0000001c 	.word	0x0000001c

020004ac <__do_global_ctors_aux>:
 20004ac:	92ea2840 	stm.w	(r24, sl, lr), [sp-]
 20004b0:	1a000000 	nop			(mov r0,r0)
 20004b4:	1a000000 	nop			(mov r0,r0)
 20004b8:	79fbc028 	ldw	r15, [pc+], #40	; 20004e4 <__do_global_ctors_aux+0x38>
 20004bc:	717e8004 	ldw	sl, [r15-], #4
 20004c0:	37d00001 	cmpadd.a	sl, #1	; 0x1
 20004c4:	a0000006 	beq	20004e0 <__do_global_ctors_aux+0x34>
 20004c8:	247e0004 	sub	r24, r15, #4	; 0x4
 20004cc:	28ff8004 	add	lr, pc, #4	; 0x4
 20004d0:	1a07c01a 	mov	pc, sl
 20004d4:	73c68004 	ldw.w	sl, [r24-], #4
 20004d8:	37d00001 	cmpadd.a	sl, #1	; 0x1
 20004dc:	a2fffffb 	bne	20004cc <__do_global_ctors_aux+0x20>
 20004e0:	8bec2840 	ldm.w	(r24, sl, pc), [sp]+
 20004e4:	020085b4 	.word	0x020085b4

020004e8 <call___do_global_ctors_aux>:
 20004e8:	72ef8004 	stw.w	lr, [sp-], #4
 20004ec:	1a000000 	nop			(mov r0,r0)
 20004f0:	69efc004 	ldw.w	pc, [sp]+, #4

Disassembly of section .fini:

020004f4 <_fini>:
 20004f4:	72ef8004 	stw.w	lr, [sp-], #4
 20004f8:	bdffff7a 	b.l	20002e4 <__do_global_dtors_aux>
 20004fc:	69efc004 	ldw.w	pc, [sp]+, #4

Disassembly of section .plt:

02000500 <.plt>:
 2000500:	72ef8004 	stw.w	lr, [sp-], #4
 2000504:	79ff8008 	ldw	lr, [pc+], #8	; 2000510 <_fini+0x1c>
 2000508:	08ff801e 	add	lr, pc, lr
 200050c:	7bf7c00c 	ldw.w	pc, [lr+], #12
 2000510:	0000817c 	.word	0x0000817c
 2000514:	28ff1200 	add	ip, pc, #0	; 0x0
 2000518:	28e72402 	add	ip, ip, #32768	; 0x8000
 200051c:	7be7c180 	ldw.w	pc, [ip+], #384
 2000520:	28ff1200 	add	ip, pc, #0	; 0x0
 2000524:	28e72402 	add	ip, ip, #32768	; 0x8000
 2000528:	7be7c178 	ldw.w	pc, [ip+], #376
 200052c:	28ff1200 	add	ip, pc, #0	; 0x0
 2000530:	28e72402 	add	ip, ip, #32768	; 0x8000
 2000534:	7be7c170 	ldw.w	pc, [ip+], #368

Disassembly of section .UNICORE32.attributes:

00000000 <.UNICORE32.attributes>:
   0:	00000f41 	and	r0, r0, r1 >> #7
   4:	61656100 	ldw.w	r21, [r12]-, #8448
   8:	01006962 	and.a	r1, r0, r2 >> r20
   c:	00000005 	and	r0, r0, r5
